target datalayout = "e-m:e-p270:32:32-p271:32:32-p272:64:64-i64:64-i128:128-f80:128-n8:16:32:64-S128"
target triple = "x86_64-unknown-linux-gnu"

%"class.icu_75::UTF16CollationIterator" = type { %"class.icu_75::CollationIterator.base", ptr, ptr, ptr }
%"class.icu_75::CollationIterator.base" = type <{ %"class.icu_75::UObject", ptr, ptr, %"class.icu_75::CollationIterator::CEBuffer", i32, [4 x i8], ptr, i32, i8 }>
%"class.icu_75::UObject" = type { ptr }
%"class.icu_75::CollationIterator::CEBuffer" = type { i32, %"class.icu_75::MaybeStackArray.0" }
%"class.icu_75::MaybeStackArray.0" = type { ptr, i32, i8, [40 x i64] }
%"class.icu_75::FCDUTF16CollationIterator" = type <{ %"class.icu_75::UTF16CollationIterator", ptr, ptr, ptr, ptr, ptr, %"class.icu_75::UnicodeString", i8, [7 x i8] }>
%"class.icu_75::UnicodeString" = type { %"class.icu_75::Replaceable", %"union.icu_75::UnicodeString::StackBufferOrFields" }
%"class.icu_75::Replaceable" = type { %"class.icu_75::UObject" }
%"union.icu_75::UnicodeString::StackBufferOrFields" = type { %struct.anon.1, [32 x i8] }
%struct.anon.1 = type { i16, i32, i32, ptr }

; Function Attrs: mustprogress nounwind uwtable
define noundef signext i8 @_ZN6icu_7525FCDUTF16CollationIterator18foundNULTerminatorEv(ptr noundef nonnull align 8 dereferenceable(521) %this) unnamed_addr #0 align 2 {
entry:
  %retval = alloca i8, align 1
  %this.addr = alloca ptr, align 8
  store ptr %this, ptr %this.addr, align 8
  %this1 = load ptr, ptr %this.addr, align 8
  %limit = getelementptr inbounds %"class.icu_75::UTF16CollationIterator", ptr %this1, i32 0, i32 3
  %0 = load ptr, ptr %limit, align 8
  %cmp = icmp eq ptr %0, null
  br i1 %cmp, label %if.then, label %if.else

if.then:                                          ; preds = %entry
  %pos = getelementptr inbounds %"class.icu_75::UTF16CollationIterator", ptr %this1, i32 0, i32 2
  %1 = load ptr, ptr %pos, align 8
  %incdec.ptr = getelementptr inbounds i16, ptr %1, i32 -1
  store ptr %incdec.ptr, ptr %pos, align 8
  %rawLimit = getelementptr inbounds %"class.icu_75::FCDUTF16CollationIterator", ptr %this1, i32 0, i32 4
  store ptr %incdec.ptr, ptr %rawLimit, align 8
  %limit2 = getelementptr inbounds %"class.icu_75::UTF16CollationIterator", ptr %this1, i32 0, i32 3
  store ptr %incdec.ptr, ptr %limit2, align 8
  store i8 1, ptr %retval, align 1
  br label %return

if.else:                                          ; preds = %entry
  store i8 0, ptr %retval, align 1
  br label %return

return:                                           ; preds = %if.else, %if.then
  %2 = load i8, ptr %retval, align 1
  ret i8 %2
}