; Function Attrs: mustprogress nofree norecurse nosync nounwind willreturn memory(argmem: readwrite) uwtable
define noundef signext i8 @_ZN6icu_7525FCDUTF16CollationIterator18foundNULTerminatorEv(ptr nocapture noundef nonnull align 8 dereferenceable(521) %this) unnamed_addr #9 align 2 {
entry:
  %limit = getelementptr inbounds i8, ptr %this, i64 408
  %0 = load ptr, ptr %limit, align 8
  %cmp = icmp eq ptr %0, null
  br i1 %cmp, label %if.then, label %return

if.then:                                          ; preds = %entry
  %pos = getelementptr inbounds i8, ptr %this, i64 400
  %1 = load ptr, ptr %pos, align 8
  %incdec.ptr = getelementptr inbounds i8, ptr %1, i64 -2
  store ptr %incdec.ptr, ptr %pos, align 8
  %rawLimit = getelementptr inbounds i8, ptr %this, i64 440
  store ptr %incdec.ptr, ptr %rawLimit, align 8
  store ptr %incdec.ptr, ptr %limit, align 8
  br label %return

return:                                           ; preds = %entry, %if.then
  %retval.0 = phi i8 [ 1, %if.then ], [ 0, %entry ]
  ret i8 %retval.0
}